target datalayout = "e-m:e-p270:32:32-p271:32:32-p272:64:64-i64:64-i128:128-f80:128-n8:16:32:64-S128"
target triple = "x86_64-pc-linux-gnu"

; Function Attrs: mustprogress nounwind uwtable
define noundef i32 @_ZN7rocksdb24GetDefaultCacheShardBitsEmm(i64 noundef %0, i64 noundef %1) #1 {
  %3 = alloca i32, align 4
  %4 = alloca i64, align 8
  %5 = alloca i64, align 8
  %6 = alloca i32, align 4
  %7 = alloca i64, align 8
  %8 = alloca i32, align 4
  store i64 %0, ptr %4, align 8, !tbaa !59
  store i64 %1, ptr %5, align 8, !tbaa !59
  call void @llvm.lifetime.start.p0(i64 4, ptr %6) #12
  store i32 0, ptr %6, align 4, !tbaa !60
  call void @llvm.lifetime.start.p0(i64 8, ptr %7) #12
  %9 = load i64, ptr %4, align 8, !tbaa !59
  %10 = load i64, ptr %5, align 8, !tbaa !59
  %11 = udiv i64 %9, %10
  store i64 %11, ptr %7, align 8, !tbaa !59
  br label %12

12:                                               ; preds = %22, %2
  %13 = load i64, ptr %7, align 8, !tbaa !59
  %14 = lshr i64 %13, 1
  store i64 %14, ptr %7, align 8, !tbaa !59
  %15 = icmp ne i64 %14, 0
  br i1 %15, label %16, label %23

16:                                               ; preds = %12
  %17 = load i32, ptr %6, align 4, !tbaa !60
  %18 = add nsw i32 %17, 1
  store i32 %18, ptr %6, align 4, !tbaa !60
  %19 = icmp sge i32 %18, 6
  br i1 %19, label %20, label %22

20:                                               ; preds = %16
  %21 = load i32, ptr %6, align 4, !tbaa !60
  store i32 %21, ptr %3, align 4
  store i32 1, ptr %8, align 4
  br label %25

22:                                               ; preds = %16
  br label %12, !llvm.loop !80

23:                                               ; preds = %12
  %24 = load i32, ptr %6, align 4, !tbaa !60
  store i32 %24, ptr %3, align 4
  store i32 1, ptr %8, align 4
  br label %25

25:                                               ; preds = %23, %20
  call void @llvm.lifetime.end.p0(i64 8, ptr %7) #12
  call void @llvm.lifetime.end.p0(i64 4, ptr %6) #12
  %26 = load i32, ptr %3, align 4
  ret i32 %26
}