; Function Attrs: mustprogress nofree norecurse nosync nounwind willreturn memory(none) uwtable
define noundef i32 @_ZN7rocksdb24GetDefaultCacheShardBitsEmm(i64 noundef %0, i64 noundef %1) local_unnamed_addr #8 {
  %3 = udiv i64 %0, %1
  br label %4

4:                                                ; preds = %5, %2
  %.07 = phi i32 [ 0, %2 ], [ %7, %5 ]
  %.0 = phi i64 [ %3, %2 ], [ %6, %5 ]
  %.not = icmp ult i64 %.0, 2
  br i1 %.not, label %8, label %5

5:                                                ; preds = %4
  %6 = lshr i64 %.0, 1
  %7 = add nuw nsw i32 %.07, 1
  %exitcond = icmp eq i32 %7, 6
  br i1 %exitcond, label %8, label %4, !llvm.loop !91

8:                                                ; preds = %4, %5
  %.08 = phi i32 [ 6, %5 ], [ %.07, %4 ]
  ret i32 %.08
}